; Function Attrs: mustprogress uwtable
define hidden noundef ptr @_Z20mk_fix_dl_var_tacticR11ast_managerRK10params_ref(ptr noundef nonnull align 8 dereferenceable(976) %0, ptr noundef nonnull align 8 dereferenceable(8) %1) local_unnamed_addr #3 personality ptr @__gxx_personality_v0 {
  %3 = tail call noalias noundef ptr @_ZN6memory8allocateEm(i64 noundef 32)
  %4 = getelementptr inbounds nuw i8, ptr %3, i64 8
  store i32 0, ptr %4, align 8, !tbaa !3
  store ptr getelementptr inbounds nuw inrange(-16, 192) (i8, ptr @_ZTV17fix_dl_var_tactic, i64 16), ptr %3, align 8, !tbaa !9
  %5 = getelementptr inbounds nuw i8, ptr %3, i64 24
  tail call void @_ZN10params_refC1ERKS_(ptr noundef nonnull align 8 dereferenceable(8) %5, ptr noundef nonnull align 8 dereferenceable(8) %1)
  %6 = invoke noalias noundef ptr @_ZN6memory8allocateEm(i64 noundef 48)
          to label %7 unwind label %11

7:                                                ; preds = %2
  store ptr %0, ptr %6, align 8, !tbaa !11
  %8 = getelementptr inbounds nuw i8, ptr %6, i64 8
  invoke void @_ZN10arith_utilC1ER11ast_manager(ptr noundef nonnull align 8 dereferenceable(16) %8, ptr noundef nonnull align 8 dereferenceable(976) %0)
          to label %.noexc.i unwind label %11

.noexc.i:                                         ; preds = %7
  %9 = getelementptr inbounds nuw i8, ptr %6, i64 24
  %10 = load ptr, ptr %6, align 8, !tbaa !14
  invoke void @_ZN11th_rewriterC1ER11ast_managerRK10params_ref(ptr noundef nonnull align 8 dereferenceable(16) %9, ptr noundef nonnull align 8 dereferenceable(976) %10, ptr noundef nonnull align 8 dereferenceable(8) %1)
          to label %_ZN17fix_dl_var_tacticC2ER11ast_managerRK10params_ref.exit unwind label %11

11:                                               ; preds = %.noexc.i, %7, %2
  %12 = landingpad { ptr, i32 }
          cleanup
  tail call void @_ZN10params_refD1Ev(ptr noundef nonnull align 8 dereferenceable(8) %5) #19
  resume { ptr, i32 } %12

_ZN17fix_dl_var_tacticC2ER11ast_managerRK10params_ref.exit: ; preds = %.noexc.i
  %13 = getelementptr inbounds nuw i8, ptr %3, i64 16
  store ptr %6, ptr %13, align 8, !tbaa !23
  %14 = tail call noundef ptr @_Z5cleanP6tactic(ptr noundef nonnull %3)
  ret ptr %14
}